; Function Attrs: mustprogress uwtable
define noundef signext i8 @_ZN6icu_7712RegexMatcher9lookingAtElR10UErrorCode(ptr noundef nonnull align 8 dereferenceable(336) %0, i64 noundef %1, ptr noundef nonnull align 4 dereferenceable(4) %2) unnamed_addr #1 align 2 {
  %4 = load i32, ptr %2, align 4, !tbaa !13
  %5 = icmp slt i32 %4, 1
  br i1 %5, label %6, label %94

6:                                                ; preds = %3
  %7 = getelementptr inbounds nuw i8, ptr %0, i64 316
  %8 = load i32, ptr %7, align 4, !tbaa !39
  %9 = icmp slt i32 %8, 1
  br i1 %9, label %11, label %10

10:                                               ; preds = %6
  store i32 %8, ptr %2, align 4, !tbaa !13
  br label %94

11:                                               ; preds = %6
  %12 = getelementptr inbounds nuw i8, ptr %0, i64 64
  store i64 0, ptr %12, align 8, !tbaa !65
  %13 = getelementptr inbounds nuw i8, ptr %0, i64 48
  %14 = load i64, ptr %13, align 8, !tbaa !66
  %15 = getelementptr inbounds nuw i8, ptr %0, i64 72
  store i64 %14, ptr %15, align 8, !tbaa !67
  %16 = getelementptr inbounds nuw i8, ptr %0, i64 112
  store i64 0, ptr %16, align 8, !tbaa !68
  %17 = getelementptr inbounds nuw i8, ptr %0, i64 120
  store i64 %14, ptr %17, align 8, !tbaa !69
  %18 = getelementptr inbounds nuw i8, ptr %0, i64 80
  store i64 0, ptr %18, align 8, !tbaa !70
  %19 = getelementptr inbounds nuw i8, ptr %0, i64 88
  store i64 %14, ptr %19, align 8, !tbaa !71
  %20 = getelementptr inbounds nuw i8, ptr %0, i64 96
  store i64 0, ptr %20, align 8, !tbaa !72
  %21 = getelementptr inbounds nuw i8, ptr %0, i64 104
  store i64 %14, ptr %21, align 8, !tbaa !73
  %22 = getelementptr inbounds nuw i8, ptr %0, i64 136
  %23 = getelementptr inbounds nuw i8, ptr %0, i64 152
  tail call void @llvm.memset.p0.i64(ptr noundef nonnull align 8 dereferenceable(16) %22, i8 0, i64 16, i1 false)
  store i64 -1, ptr %23, align 8, !tbaa !30
  %24 = getelementptr inbounds nuw i8, ptr %0, i64 160
  store i64 0, ptr %24, align 8, !tbaa !31
  %25 = getelementptr inbounds nuw i8, ptr %0, i64 130
  store i8 0, ptr %25, align 2, !tbaa !29
  %26 = getelementptr inbounds nuw i8, ptr %0, i64 168
  store i8 0, ptr %26, align 8, !tbaa !32
  %27 = getelementptr inbounds nuw i8, ptr %0, i64 169
  store i8 0, ptr %27, align 1, !tbaa !33
  %28 = getelementptr inbounds nuw i8, ptr %0, i64 268
  store i32 0, ptr %28, align 4, !tbaa !35
  %29 = getelementptr inbounds nuw i8, ptr %0, i64 272
  store i32 10000, ptr %29, align 8, !tbaa !36
  %30 = icmp slt i64 %1, 0
  br i1 %30, label %31, label %32

31:                                               ; preds = %11
  store i32 8, ptr %2, align 4, !tbaa !13
  br label %94

32:                                               ; preds = %11
  %33 = getelementptr inbounds nuw i8, ptr %0, i64 312
  %34 = load i8, ptr %33, align 8, !tbaa !41
  %.not16 = icmp eq i8 %34, 0
  br i1 %.not16, label %_ZN6icu_77L31compat_SyncMutableUTextContentsEP5UText.exit.thread, label %35

35:                                               ; preds = %32
  %36 = getelementptr inbounds nuw i8, ptr %0, i64 32
  %37 = load ptr, ptr %36, align 8, !tbaa !77
  %38 = tail call i64 @utext_nativeLength_77(ptr noundef %37)
  %39 = getelementptr inbounds nuw i8, ptr %37, i64 28
  %40 = load i32, ptr %39, align 4, !tbaa !87
  %41 = sext i32 %40 to i64
  %.not.i = icmp eq i64 %38, %41
  br i1 %.not.i, label %._ZN6icu_77L31compat_SyncMutableUTextContentsEP5UText.exit.thread_crit_edge, label %42

._ZN6icu_77L31compat_SyncMutableUTextContentsEP5UText.exit.thread_crit_edge: ; preds = %35
  %.pre = load i64, ptr %16, align 8, !tbaa !68
  %.pre22 = load i64, ptr %17, align 8
  br label %_ZN6icu_77L31compat_SyncMutableUTextContentsEP5UText.exit.thread

42:                                               ; preds = %35
  %43 = getelementptr inbounds nuw i8, ptr %37, i64 72
  %44 = load ptr, ptr %43, align 8, !tbaa !155
  %45 = getelementptr inbounds nuw i8, ptr %44, i64 8
  %46 = load i16, ptr %45, align 8, !tbaa !100
  %47 = icmp slt i16 %46, 0
  %48 = ashr i16 %46, 5
  %49 = sext i16 %48 to i32
  %50 = getelementptr inbounds nuw i8, ptr %44, i64 12
  %51 = load i32, ptr %50, align 4
  %52 = select i1 %47, i32 %51, i32 %49
  %53 = and i16 %46, 17
  %.not.i.i = icmp eq i16 %53, 0
  br i1 %.not.i.i, label %54, label %61

54:                                               ; preds = %42
  %55 = and i16 %46, 2
  %.not2.i.i = icmp eq i16 %55, 0
  br i1 %.not2.i.i, label %58, label %56

56:                                               ; preds = %54
  %57 = getelementptr inbounds nuw i8, ptr %44, i64 10
  br label %61

58:                                               ; preds = %54
  %59 = getelementptr inbounds nuw i8, ptr %44, i64 24
  %60 = load ptr, ptr %59, align 8, !tbaa !100
  br label %61

61:                                               ; preds = %58, %56, %42
  %.0.i.i = phi ptr [ %57, %56 ], [ %60, %58 ], [ null, %42 ]
  %62 = getelementptr inbounds nuw i8, ptr %37, i64 48
  store ptr %.0.i.i, ptr %62, align 8, !tbaa !88
  %63 = getelementptr inbounds nuw i8, ptr %37, i64 44
  store i32 %52, ptr %63, align 4, !tbaa !96
  %64 = sext i32 %52 to i64
  %65 = getelementptr inbounds nuw i8, ptr %37, i64 16
  store i64 %64, ptr %65, align 8, !tbaa !86
  store i32 %52, ptr %39, align 4, !tbaa !87
  %66 = load ptr, ptr %36, align 8, !tbaa !77
  %67 = tail call i64 @utext_nativeLength_77(ptr noundef %66)
  store i64 %67, ptr %13, align 8, !tbaa !66
  store i64 0, ptr %12, align 8, !tbaa !65
  store i64 %67, ptr %15, align 8, !tbaa !67
  store i64 0, ptr %16, align 8, !tbaa !68
  store i64 %67, ptr %17, align 8, !tbaa !69
  store i64 0, ptr %18, align 8, !tbaa !70
  store i64 %67, ptr %19, align 8, !tbaa !71
  store i64 0, ptr %20, align 8, !tbaa !72
  store i64 %67, ptr %21, align 8, !tbaa !73
  tail call void @llvm.memset.p0.i64(ptr noundef nonnull align 8 dereferenceable(16) %22, i8 0, i64 16, i1 false)
  store i64 -1, ptr %23, align 8, !tbaa !30
  store i64 0, ptr %24, align 8, !tbaa !31
  store i8 0, ptr %25, align 2, !tbaa !29
  store i8 0, ptr %26, align 8, !tbaa !32
  store i8 0, ptr %27, align 1, !tbaa !33
  store i32 0, ptr %28, align 4, !tbaa !35
  store i32 10000, ptr %29, align 8, !tbaa !36
  br label %_ZN6icu_77L31compat_SyncMutableUTextContentsEP5UText.exit.thread

_ZN6icu_77L31compat_SyncMutableUTextContentsEP5UText.exit.thread: ; preds = %._ZN6icu_77L31compat_SyncMutableUTextContentsEP5UText.exit.thread_crit_edge, %61, %32
  %68 = phi i64 [ %.pre22, %._ZN6icu_77L31compat_SyncMutableUTextContentsEP5UText.exit.thread_crit_edge ], [ %67, %61 ], [ %14, %32 ]
  %69 = phi i64 [ %.pre, %._ZN6icu_77L31compat_SyncMutableUTextContentsEP5UText.exit.thread_crit_edge ], [ 0, %61 ], [ 0, %32 ]
  %70 = icmp slt i64 %1, %69
  %71 = icmp sgt i64 %1, %68
  %or.cond = select i1 %70, i1 true, i1 %71
  br i1 %or.cond, label %72, label %73

72:                                               ; preds = %_ZN6icu_77L31compat_SyncMutableUTextContentsEP5UText.exit.thread
  store i32 8, ptr %2, align 4, !tbaa !13
  br label %94

73:                                               ; preds = %_ZN6icu_77L31compat_SyncMutableUTextContentsEP5UText.exit.thread
  %74 = getelementptr inbounds nuw i8, ptr %0, i64 32
  %75 = load ptr, ptr %74, align 8, !tbaa !77
  %76 = getelementptr inbounds nuw i8, ptr %75, i64 32
  %77 = load i64, ptr %76, align 8, !tbaa !83
  %78 = icmp eq i64 %77, 0
  br i1 %78, label %79, label %91

79:                                               ; preds = %73
  %80 = load i64, ptr %13, align 8, !tbaa !66
  %81 = getelementptr inbounds nuw i8, ptr %75, i64 16
  %82 = load i64, ptr %81, align 8, !tbaa !86
  %83 = icmp eq i64 %80, %82
  br i1 %83, label %84, label %91

84:                                               ; preds = %79
  %85 = getelementptr inbounds nuw i8, ptr %75, i64 28
  %86 = load i32, ptr %85, align 4, !tbaa !87
  %87 = sext i32 %86 to i64
  %88 = icmp eq i64 %80, %87
  br i1 %88, label %89, label %91

89:                                               ; preds = %84
  %90 = trunc i64 %1 to i32
  tail call void @_ZN6icu_7712RegexMatcher12MatchChunkAtEiaR10UErrorCode(ptr noundef nonnull align 8 dereferenceable(336) %0, i32 noundef %90, i8 noundef signext 0, ptr noundef nonnull align 4 dereferenceable(4) %2)
  br label %92

91:                                               ; preds = %84, %79, %73
  tail call void @_ZN6icu_7712RegexMatcher7MatchAtElaR10UErrorCode(ptr noundef nonnull align 8 dereferenceable(336) %0, i64 noundef %1, i8 noundef signext 0, ptr noundef nonnull align 4 dereferenceable(4) %2)
  br label %92

92:                                               ; preds = %91, %89
  %93 = load i8, ptr %25, align 2, !tbaa !29
  br label %94

94:                                               ; preds = %72, %92, %3, %31, %10
  %.0 = phi i8 [ 0, %10 ], [ 0, %31 ], [ 0, %3 ], [ 0, %72 ], [ %93, %92 ]
  ret i8 %.0
}